Certificate:
    Data:
        Version: 3 (0x2)
        Serial Number:
            9b:92:4f:b8:9d:ff:02:96:aa:a3:55:47:72:2d:ce:fe
        Signature Algorithm: sha256WithRSAEncryption
        Issuer: CN=Omer Test Labs CA
        Validity
            Not Before: Oct 26 19:38:16 2025 GMT
            Not After : Oct 26 19:38:16 2026 GMT
        Subject: CN=ty-test.mybank.local
        Subject Public Key Info:
            Public Key Algorithm: rsaEncryption
                Public-Key: (2048 bit)
                Modulus:
                    00:ae:f5:79:44:b3:91:e5:67:99:4c:85:7e:8e:59:
                    9e:87:7f:c9:39:af:c6:69:5b:a3:b3:1e:95:fe:1b:
                    61:0d:a7:85:91:95:8d:15:40:6e:4f:59:ff:9e:7b:
                    0e:72:02:5e:c1:60:4e:ed:c1:44:78:10:f7:b9:90:
                    08:b3:b9:17:bb:99:49:e3:90:83:31:88:af:d7:65:
                    b6:c5:db:95:e5:9b:f1:c7:cb:ae:e1:65:4c:f3:b6:
                    5c:21:5f:f1:11:68:26:6a:27:51:c4:66:ad:94:dc:
                    43:3a:d2:53:72:15:43:24:17:5a:50:eb:be:b1:e0:
                    80:8f:71:38:bb:91:e1:3c:f5:b1:04:34:81:80:dd:
                    64:13:5f:f5:1d:fc:f4:ab:03:e6:bd:6d:0b:1f:5a:
                    13:6a:37:9c:64:91:98:9f:9a:a1:ae:48:e7:16:3e:
                    9c:5c:00:99:3b:ac:46:4b:46:f7:ed:f6:41:26:8d:
                    02:48:c7:2c:e6:fa:ef:5c:0b:01:53:3d:a2:c8:36:
                    64:6a:d4:c5:83:25:3b:e1:09:26:22:d1:e6:52:04:
                    7f:e2:ce:f3:f8:bd:99:54:b1:47:f9:c0:4a:b0:bb:
                    49:37:da:0b:bd:36:a2:8b:ce:a4:57:b3:26:4c:d6:
                    2e:b1:cf:c1:9b:d9:03:52:27:25:65:d4:58:fd:57:
                    6b:1f
                Exponent: 65537 (0x10001)
        X509v3 extensions:
            X509v3 Basic Constraints: 
                CA:FALSE
            X509v3 Subject Key Identifier: 
                59:6C:81:70:7A:79:C1:34:A0:24:DC:1C:A3:A6:8C:4A:00:DB:F2:FC
            X509v3 Authority Key Identifier: 
                keyid:45:29:50:54:81:AC:C4:F6:92:D9:F5:7F:2F:E1:75:D2:04:54:F6:C7
                DirName:/CN=Omer Test Labs CA
                serial:0E:67:34:1E:12:D8:29:6A:6D:96:79:8A:A0:49:F3:F1:18:62:4A:0D
            X509v3 Extended Key Usage: 
                TLS Web Server Authentication
            X509v3 Key Usage: 
                Digital Signature, Key Encipherment
            X509v3 CRL Distribution Points: 
                Full Name:
                  URI:http://192.168.61.10/crl.pem
            X509v3 Subject Alternative Name: 
                DNS:ty-test.mybank.local
    Signature Algorithm: sha256WithRSAEncryption
    Signature Value:
        24:66:f6:96:89:55:df:f7:0e:b0:10:e5:74:d4:c2:12:1a:7f:
        4b:80:0c:14:68:52:97:57:1c:53:60:96:33:06:8e:69:dd:c5:
        54:cf:e5:1a:b8:a1:6c:9f:12:0e:9e:81:c5:8b:2e:c0:e0:4a:
        a3:f0:c3:51:16:44:86:53:f3:8f:c4:22:99:9d:1f:ab:1f:f0:
        25:10:7b:75:3d:ae:d4:b2:cd:8e:72:97:d8:76:a1:e9:22:48:
        3a:2f:08:df:ab:b0:f6:7a:9a:08:87:7c:05:23:c5:cd:67:11:
        09:b8:1b:ac:b1:92:14:97:dc:05:00:1e:fa:ad:15:b0:bd:c0:
        22:dc:21:f4:76:af:5b:88:7d:76:77:28:02:8c:b6:96:25:eb:
        2a:69:b2:24:c4:8b:0e:3a:74:f6:ff:a9:46:82:50:6a:97:9a:
        1b:35:84:29:09:bd:fa:a2:c1:ae:95:2b:11:59:5e:0d:49:01:
        a9:10:3e:f6:79:0e:fb:ce:bc:b3:9b:87:be:76:bf:02:6d:ce:
        15:97:f9:e5:f7:c7:da:32:78:2a:6f:af:3d:62:7d:2e:c5:7c:
        c7:ee:67:cf:5c:bd:f0:44:45:ef:e9:1c:01:19:f9:9c:b2:25:
        05:32:3e:20:64:4d:51:2b:cf:be:9a:43:10:9f:9b:34:bd:5a:
        2b:8b:64:b1
-----BEGIN CERTIFICATE-----
MIIDvzCCAqegAwIBAgIRAJuST7id/wKWqqNVR3Itzv4wDQYJKoZIhvcNAQELBQAw
HDEaMBgGA1UEAwwRT21lciBUZXN0IExhYnMgQ0EwHhcNMjUxMDI2MTkzODE2WhcN
MjYxMDI2MTkzODE2WjAfMR0wGwYDVQQDDBR0eS10ZXN0Lm15YmFuay5sb2NhbDCC
ASIwDQYJKoZIhvcNAQEBBQADggEPADCCAQoCggEBAK71eUSzkeVnmUyFfo5Znod/
yTmvxmlbo7Melf4bYQ2nhZGVjRVAbk9Z/557DnICXsFgTu3BRHgQ97mQCLO5F7uZ
SeOQgzGIr9dltsXbleWb8cfLruFlTPO2XCFf8RFoJmonUcRmrZTcQzrSU3IVQyQX
WlDrvrHggI9xOLuR4Tz1sQQ0gYDdZBNf9R389KsD5r1tCx9aE2o3nGSRmJ+aoa5I
5xY+nFwAmTusRktG9+32QSaNAkjHLOb671wLAVM9osg2ZGrUxYMlO+EJJiLR5lIE
f+LO8/i9mVSxR/nASrC7STfaC702oovOpFezJkzWLrHPwZvZA1InJWXUWP1Xax8C
AwEAAaOB+DCB9TAJBgNVHRMEAjAAMB0GA1UdDgQWBBRZbIFwennBNKAk3ByjpoxK
ANvy/DBXBgNVHSMEUDBOgBRFKVBUgazE9pLZ9X8v4XXSBFT2x6EgpB4wHDEaMBgG
A1UEAwwRT21lciBUZXN0IExhYnMgQ0GCFA5nNB4S2ClqbZZ5iqBJ8/EYYkoNMBMG
A1UdJQQMMAoGCCsGAQUFBwMBMAsGA1UdDwQEAwIFoDAtBgNVHR8EJjAkMCKgIKAe
hhxodHRwOi8vMTkyLjE2OC42MS4xMC9jcmwucGVtMB8GA1UdEQQYMBaCFHR5LXRl
c3QubXliYW5rLmxvY2FsMA0GCSqGSIb3DQEBCwUAA4IBAQAkZvaWiVXf9w6wEOV0
1MISGn9LgAwUaFKXVxxTYJYzBo5p3cVUz+UauKFsnxIOnoHFiy7A4Eqj8MNRFkSG
U/OPxCKZnR+rH/AlEHt1Pa7Uss2OcpfYdqHpIkg6Lwjfq7D2epoIh3wFI8XNZxEJ
uBussZIUl9wFAB76rRWwvcAi3CH0dq9biH12dygCjLaWJesqabIkxIsOOnT2/6lG
glBql5obNYQpCb36osGulSsRWV4NSQGpED72eQ77zryzm4e+dr8Cbc4Vl/nl98fa
Mngqb689Yn0uxXzH7mfPXL3wREXv6RwBGfmcsiUFMj4gZE1RK8++mkMQn5s0vVor
i2Sx
-----END CERTIFICATE-----
