Certificate:
    Data:
        Version: 3 (0x2)
        Serial Number:
            34:24:08:0f:a8:d4:e8:e6:5d:d5:24:14:70:8a:f1:9a
        Signature Algorithm: sha256WithRSAEncryption
        Issuer: CN=Omer Test Labs CA
        Validity
            Not Before: Oct 26 00:37:03 2025 GMT
            Not After : Oct 26 00:37:03 2026 GMT
        Subject: CN=securewebserver.mybank.local
        Subject Public Key Info:
            Public Key Algorithm: rsaEncryption
                Public-Key: (2048 bit)
                Modulus:
                    00:dc:2a:bc:4e:23:30:97:3f:6b:bb:44:2b:82:c5:
                    fa:68:bb:89:c8:d5:3a:7e:8b:6e:34:1c:1c:ee:78:
                    67:f8:f0:e7:6b:0e:8a:0b:fa:c6:85:f0:83:98:f5:
                    7a:e8:85:4c:cc:2b:09:03:12:5d:61:23:70:a0:f2:
                    94:c2:e4:12:f0:a3:44:7e:47:1c:0a:6c:64:f5:ea:
                    fb:a3:7a:6d:78:4c:e3:8c:ca:09:45:cb:37:37:4a:
                    17:72:f7:47:e0:48:d0:6b:8b:c5:8e:aa:f0:83:17:
                    9f:a2:92:19:4c:b9:ca:b5:cc:5f:1e:ce:43:7f:40:
                    10:50:7a:c4:9f:31:a6:bc:b9:3b:09:44:9f:45:b1:
                    36:cc:e7:5f:d8:fd:95:df:aa:be:24:18:b8:3e:45:
                    54:4b:43:e6:78:86:93:47:72:c7:96:3f:3a:f1:d7:
                    34:66:46:17:bc:01:98:d3:59:71:d4:f8:74:a6:f8:
                    5d:05:2b:1d:2a:dd:d0:4b:03:fa:db:b0:c6:80:a4:
                    b7:94:d8:48:c2:62:e1:1c:3d:a0:b1:ae:96:ca:69:
                    2e:26:82:a0:8e:70:ac:57:a4:e2:ff:40:6b:38:31:
                    eb:58:96:52:2b:7f:5c:f8:a1:18:f6:f8:05:c8:e5:
                    d5:bc:d8:cb:7d:d0:aa:d4:ad:d4:91:ca:85:be:e3:
                    9b:dd
                Exponent: 65537 (0x10001)
        X509v3 extensions:
            X509v3 Basic Constraints: 
                CA:FALSE
            X509v3 Subject Key Identifier: 
                2E:5A:15:49:5E:48:73:1C:AE:A1:78:0C:CA:F2:CE:41:DA:F0:37:9A
            X509v3 Authority Key Identifier: 
                keyid:45:29:50:54:81:AC:C4:F6:92:D9:F5:7F:2F:E1:75:D2:04:54:F6:C7
                DirName:/CN=Omer Test Labs CA
                serial:0E:67:34:1E:12:D8:29:6A:6D:96:79:8A:A0:49:F3:F1:18:62:4A:0D
            X509v3 Extended Key Usage: 
                TLS Web Server Authentication
            X509v3 Key Usage: 
                Digital Signature, Key Encipherment
            X509v3 Subject Alternative Name: 
                DNS:securewebserver.mybank.local
    Signature Algorithm: sha256WithRSAEncryption
    Signature Value:
        b5:8b:85:8f:c7:76:6c:1b:0c:72:c4:62:a5:6c:74:a7:40:d9:
        48:a4:3c:43:94:ce:d6:62:49:9f:09:fb:d1:20:e0:2d:af:2b:
        48:95:a7:9c:0c:2d:71:4b:31:e8:50:c7:08:dc:a9:80:d3:37:
        0f:22:47:d1:eb:62:ff:20:1e:f8:dc:9b:82:fe:db:70:fe:d2:
        03:89:b3:44:d3:f3:66:8c:67:0a:d7:b4:69:ab:86:52:27:f5:
        f9:56:31:23:5d:c9:3d:23:6d:7a:7f:df:62:61:53:41:11:16:
        73:a3:86:61:de:7d:ae:7a:d7:89:f2:03:8e:69:3a:ac:bd:67:
        70:c0:b8:3b:85:16:4e:81:bd:29:8c:42:41:f1:17:8f:c1:60:
        5b:4b:f1:cd:da:20:d3:db:06:ff:19:24:bf:dc:3d:c5:bd:a6:
        d9:38:cb:1f:62:57:22:49:a3:30:38:a9:ba:9a:85:76:15:d0:
        70:61:28:de:37:9d:84:0d:13:8f:ee:ea:ce:93:98:50:a3:b4:
        3a:ef:c1:e0:32:fc:17:ff:6d:37:12:7f:e0:0f:02:69:2e:02:
        7d:c8:ab:19:b1:14:aa:45:cc:15:1a:52:fe:6c:b2:c4:b2:d9:
        12:9d:46:ac:db:dc:02:e0:39:45:7a:94:94:29:8f:9e:fb:01:
        4a:ef:51:66
-----BEGIN CERTIFICATE-----
MIIDnzCCAoegAwIBAgIQNCQID6jU6OZd1SQUcIrxmjANBgkqhkiG9w0BAQsFADAc
MRowGAYDVQQDDBFPbWVyIFRlc3QgTGFicyBDQTAeFw0yNTEwMjYwMDM3MDNaFw0y
NjEwMjYwMDM3MDNaMCcxJTAjBgNVBAMMHHNlY3VyZXdlYnNlcnZlci5teWJhbmsu
bG9jYWwwggEiMA0GCSqGSIb3DQEBAQUAA4IBDwAwggEKAoIBAQDcKrxOIzCXP2u7
RCuCxfpou4nI1Tp+i240HBzueGf48OdrDooL+saF8IOY9XrohUzMKwkDEl1hI3Cg
8pTC5BLwo0R+RxwKbGT16vujem14TOOMyglFyzc3Shdy90fgSNBri8WOqvCDF5+i
khlMucq1zF8ezkN/QBBQesSfMaa8uTsJRJ9FsTbM51/Y/ZXfqr4kGLg+RVRLQ+Z4
hpNHcseWPzrx1zRmRhe8AZjTWXHU+HSm+F0FKx0q3dBLA/rbsMaApLeU2EjCYuEc
PaCxrpbKaS4mgqCOcKxXpOL/QGs4MetYllIrf1z4oRj2+AXI5dW82Mt90KrUrdSR
yoW+45vdAgMBAAGjgdEwgc4wCQYDVR0TBAIwADAdBgNVHQ4EFgQULloVSV5Icxyu
oXgMyvLOQdrwN5owVwYDVR0jBFAwToAURSlQVIGsxPaS2fV/L+F10gRU9sehIKQe
MBwxGjAYBgNVBAMMEU9tZXIgVGVzdCBMYWJzIENBghQOZzQeEtgpam2WeYqgSfPx
GGJKDTATBgNVHSUEDDAKBggrBgEFBQcDATALBgNVHQ8EBAMCBaAwJwYDVR0RBCAw
HoIcc2VjdXJld2Vic2VydmVyLm15YmFuay5sb2NhbDANBgkqhkiG9w0BAQsFAAOC
AQEAtYuFj8d2bBsMcsRipWx0p0DZSKQ8Q5TO1mJJnwn70SDgLa8rSJWnnAwtcUsx
6FDHCNypgNM3DyJH0eti/yAe+Nybgv7bcP7SA4mzRNPzZoxnCte0aauGUif1+VYx
I13JPSNten/fYmFTQREWc6OGYd59rnrXifIDjmk6rL1ncMC4O4UWToG9KYxCQfEX
j8FgW0vxzdog09sG/xkkv9w9xb2m2TjLH2JXIkmjMDipupqFdhXQcGEo3jedhA0T
j+7qzpOYUKO0Ou/B4DL8F/9tNxJ/4A8CaS4CfcirGbEUqkXMFRpS/myyxLLZEp1G
rNvcAuA5RXqUlCmPnvsBSu9RZg==
-----END CERTIFICATE-----
