Certificate:
    Data:
        Version: 3 (0x2)
        Serial Number:
            57:3a:17:75:fc:8c:1b:d8:fa:bb:06:e2:29:1d:4b:e3
        Signature Algorithm: sha256WithRSAEncryption
        Issuer: CN=Omer Test Labs CA
        Validity
            Not Before: Oct 26 00:26:37 2025 GMT
            Not After : Oct 26 00:26:37 2026 GMT
        Subject: CN=securewebserver.mybank.local
        Subject Public Key Info:
            Public Key Algorithm: rsaEncryption
                Public-Key: (2048 bit)
                Modulus:
                    00:c3:b7:db:03:dd:92:0d:20:63:f0:f7:90:aa:f5:
                    1b:81:e8:05:c8:d7:9a:a9:b3:69:26:8a:50:46:67:
                    3b:be:81:b6:ae:a0:96:9d:ca:72:b4:91:ac:3d:22:
                    0a:55:ad:b8:31:2a:0d:df:20:a3:ae:cc:2c:72:7c:
                    25:bb:4c:ae:de:9c:93:f7:7d:23:4d:f7:16:db:bf:
                    40:96:5e:25:3f:2a:d0:ab:c3:14:18:a2:52:32:57:
                    3a:52:ce:42:2c:66:1b:f1:ec:84:05:c7:8e:93:f5:
                    57:da:cd:a5:d8:32:b9:45:d1:cf:27:2b:8b:76:66:
                    79:f5:77:98:80:30:22:6c:75:bc:88:fa:77:15:89:
                    48:9e:56:39:b6:80:09:36:99:00:6c:16:9a:13:2f:
                    e7:ef:16:02:60:c6:23:15:a3:a5:cb:8e:2f:eb:b2:
                    0e:35:8b:43:45:ae:ec:62:dd:30:88:02:bb:9f:2c:
                    47:eb:84:b6:13:73:29:fb:99:ef:a3:6e:7b:5f:64:
                    e7:b9:9b:8d:e3:e9:80:28:47:71:a3:17:e0:89:1c:
                    9e:a1:8a:6b:3a:84:3a:e3:a6:20:4e:8c:0f:54:dc:
                    34:5e:28:35:99:69:e5:97:ae:dc:31:f4:19:97:62:
                    61:e3:7b:c7:6f:04:51:4c:34:6f:2a:46:2c:43:80:
                    17:1b
                Exponent: 65537 (0x10001)
        X509v3 extensions:
            X509v3 Basic Constraints: 
                CA:FALSE
            X509v3 Subject Key Identifier: 
                30:CB:DD:35:22:CC:40:74:02:A9:C6:C1:FB:0B:70:C3:F4:45:49:0F
            X509v3 Authority Key Identifier: 
                keyid:45:29:50:54:81:AC:C4:F6:92:D9:F5:7F:2F:E1:75:D2:04:54:F6:C7
                DirName:/CN=Omer Test Labs CA
                serial:0E:67:34:1E:12:D8:29:6A:6D:96:79:8A:A0:49:F3:F1:18:62:4A:0D
            X509v3 Extended Key Usage: 
                TLS Web Server Authentication
            X509v3 Key Usage: 
                Digital Signature, Key Encipherment
            X509v3 Subject Alternative Name: 
                DNS:securewebserver.mybank.local
    Signature Algorithm: sha256WithRSAEncryption
    Signature Value:
        4b:c0:07:4f:9d:5c:27:81:09:2f:79:1a:b7:2e:e1:c5:2f:5b:
        0e:cd:e3:7a:d8:8d:da:e5:a7:b6:5e:2e:91:87:62:d2:9b:93:
        c0:f5:0a:9c:ca:8b:01:49:91:be:b0:65:76:38:bd:63:a8:9f:
        09:ad:d5:83:e9:e4:9b:5a:be:12:5f:98:aa:82:f7:8e:bc:c1:
        57:b5:b3:6d:01:da:7b:c9:0f:d6:d2:75:06:ae:6c:76:58:ef:
        cc:c4:73:d0:13:a4:6a:c0:08:a4:08:ef:16:d7:ee:ac:6f:d9:
        9c:62:b9:15:df:34:8f:58:cc:c1:13:bf:2e:30:60:de:09:12:
        d0:ec:ec:68:b8:3d:bc:46:2a:3a:07:f8:a6:bb:a3:6f:11:6f:
        8c:43:8f:92:9f:ca:57:68:69:ae:96:bd:29:a6:c3:f5:92:2d:
        56:71:50:58:16:9d:94:39:06:3f:cd:58:26:a6:b9:e6:7e:e1:
        1a:3b:09:7d:b5:d0:bc:cc:6f:2a:49:55:36:17:71:3b:40:7d:
        f4:61:04:7d:48:5c:31:47:a1:67:f5:10:a4:0c:e5:38:8d:d0:
        57:6b:0c:41:ac:d6:b3:a4:2a:3d:36:c9:a5:72:dc:95:45:d7:
        c7:4d:34:9a:06:27:02:fb:06:12:30:29:2c:ef:fd:ce:a7:1e:
        13:51:59:ee
-----BEGIN CERTIFICATE-----
MIIDnzCCAoegAwIBAgIQVzoXdfyMG9j6uwbiKR1L4zANBgkqhkiG9w0BAQsFADAc
MRowGAYDVQQDDBFPbWVyIFRlc3QgTGFicyBDQTAeFw0yNTEwMjYwMDI2MzdaFw0y
NjEwMjYwMDI2MzdaMCcxJTAjBgNVBAMMHHNlY3VyZXdlYnNlcnZlci5teWJhbmsu
bG9jYWwwggEiMA0GCSqGSIb3DQEBAQUAA4IBDwAwggEKAoIBAQDDt9sD3ZINIGPw
95Cq9RuB6AXI15qps2kmilBGZzu+gbauoJadynK0kaw9IgpVrbgxKg3fIKOuzCxy
fCW7TK7enJP3fSNN9xbbv0CWXiU/KtCrwxQYolIyVzpSzkIsZhvx7IQFx46T9Vfa
zaXYMrlF0c8nK4t2Znn1d5iAMCJsdbyI+ncViUieVjm2gAk2mQBsFpoTL+fvFgJg
xiMVo6XLji/rsg41i0NFruxi3TCIArufLEfrhLYTcyn7me+jbntfZOe5m43j6YAo
R3GjF+CJHJ6hims6hDrjpiBOjA9U3DReKDWZaeWXrtwx9BmXYmHje8dvBFFMNG8q
RixDgBcbAgMBAAGjgdEwgc4wCQYDVR0TBAIwADAdBgNVHQ4EFgQUMMvdNSLMQHQC
qcbB+wtww/RFSQ8wVwYDVR0jBFAwToAURSlQVIGsxPaS2fV/L+F10gRU9sehIKQe
MBwxGjAYBgNVBAMMEU9tZXIgVGVzdCBMYWJzIENBghQOZzQeEtgpam2WeYqgSfPx
GGJKDTATBgNVHSUEDDAKBggrBgEFBQcDATALBgNVHQ8EBAMCBaAwJwYDVR0RBCAw
HoIcc2VjdXJld2Vic2VydmVyLm15YmFuay5sb2NhbDANBgkqhkiG9w0BAQsFAAOC
AQEAS8AHT51cJ4EJL3katy7hxS9bDs3jetiN2uWntl4ukYdi0puTwPUKnMqLAUmR
vrBldji9Y6ifCa3Vg+nkm1q+El+YqoL3jrzBV7WzbQHae8kP1tJ1Bq5sdljvzMRz
0BOkasAIpAjvFtfurG/ZnGK5Fd80j1jMwRO/LjBg3gkS0OzsaLg9vEYqOgf4pruj
bxFvjEOPkp/KV2hprpa9KabD9ZItVnFQWBadlDkGP81YJqa55n7hGjsJfbXQvMxv
KklVNhdxO0B99GEEfUhcMUehZ/UQpAzlOI3QV2sMQazWs6QqPTbJpXLclUXXx000
mgYnAvsGEjApLO/9zqceE1FZ7g==
-----END CERTIFICATE-----
