Certificate:
    Data:
        Version: 3 (0x2)
        Serial Number:
            71:3e:ad:db:e8:41:c9:91:e4:91:c1:d0:b7:c3:a9:32
        Signature Algorithm: sha256WithRSAEncryption
        Issuer: CN=Omer Test Labs CA
        Validity
            Not Before: Oct 26 00:32:40 2025 GMT
            Not After : Oct 26 00:32:40 2026 GMT
        Subject: CN=securewebserver.mybank.local
        Subject Public Key Info:
            Public Key Algorithm: rsaEncryption
                Public-Key: (2048 bit)
                Modulus:
                    00:a5:fc:94:53:bb:1f:36:b3:30:bd:e2:44:1d:bb:
                    77:16:6a:bc:1b:33:39:55:93:c7:a2:60:80:b0:32:
                    f9:24:4d:17:23:70:36:28:a1:29:ac:6d:61:90:e9:
                    45:cf:ca:11:87:12:59:41:f1:32:60:3b:fe:98:84:
                    1a:64:44:2a:d7:75:d1:80:ce:c7:be:bf:6c:d8:16:
                    4a:aa:58:4e:4b:d1:ed:98:0e:71:93:44:db:a0:22:
                    6f:38:33:67:56:3c:c8:52:54:bc:a1:48:f7:ec:c9:
                    e9:8b:5a:fa:26:36:0a:c8:a8:03:e9:8d:0d:59:ee:
                    3a:29:ea:fd:54:69:b4:65:31:c6:bc:cc:f6:c1:c6:
                    cb:94:18:a5:2e:85:fd:eb:21:ab:55:56:27:f8:42:
                    3a:43:d6:cf:ea:12:49:5c:5e:25:9a:82:78:df:a4:
                    b1:cd:21:b8:1b:8a:a5:98:e7:1f:b9:7e:25:a1:cc:
                    d8:65:b5:cc:ae:a7:fb:bf:1a:21:f9:2a:47:b8:80:
                    3b:1b:2d:4b:b5:75:24:d0:f9:70:9e:fa:ed:05:7a:
                    53:f8:0e:1c:06:6e:e7:e3:65:94:f3:f0:09:07:3b:
                    62:ea:0e:43:72:33:02:ff:0d:67:c1:9f:b6:94:44:
                    e3:79:c8:a9:26:3a:09:06:e0:19:9f:ac:ae:ae:96:
                    4e:fb
                Exponent: 65537 (0x10001)
        X509v3 extensions:
            X509v3 Basic Constraints: 
                CA:FALSE
            X509v3 Subject Key Identifier: 
                6B:87:4A:CA:4F:C0:93:D8:58:5B:05:75:4D:78:DF:B5:2A:71:66:70
            X509v3 Authority Key Identifier: 
                keyid:45:29:50:54:81:AC:C4:F6:92:D9:F5:7F:2F:E1:75:D2:04:54:F6:C7
                DirName:/CN=Omer Test Labs CA
                serial:0E:67:34:1E:12:D8:29:6A:6D:96:79:8A:A0:49:F3:F1:18:62:4A:0D
            X509v3 Extended Key Usage: 
                TLS Web Server Authentication
            X509v3 Key Usage: 
                Digital Signature, Key Encipherment
            X509v3 Subject Alternative Name: 
                DNS:securewebserver.mybank.local
    Signature Algorithm: sha256WithRSAEncryption
    Signature Value:
        6f:ac:1d:97:f4:43:e1:8a:d5:1f:a4:78:16:2a:53:d9:c9:37:
        c4:bd:17:26:7a:54:f7:78:15:22:e2:8f:d5:01:d9:26:3f:b8:
        bb:b2:f0:4d:19:3b:ea:bc:5a:e4:fc:d7:96:af:5c:8b:8c:3d:
        ff:5c:d1:75:84:56:ff:4b:50:59:e1:57:10:e8:03:fe:0e:bf:
        f7:89:f2:8a:49:82:05:7a:be:bb:61:df:69:85:0a:50:ce:c3:
        af:8b:5f:21:51:f1:36:ba:ab:76:7c:97:2d:fe:f5:76:37:a3:
        52:e9:8f:0e:59:5c:df:fa:4c:ac:5c:6f:5c:98:44:ae:5d:1e:
        ab:fb:b6:b3:a8:6f:cc:96:b5:fa:11:55:60:ce:8a:32:0e:07:
        56:a1:de:ae:8f:ef:b5:e5:05:a7:c6:cb:11:33:d1:6a:0b:a6:
        c4:77:37:0f:e3:b0:37:0c:b8:0b:c5:fe:4c:f3:ca:01:a0:88:
        e4:ec:6a:c7:04:62:a2:98:fe:91:0e:08:01:e4:0b:d0:73:47:
        60:b3:b1:3b:fd:1c:e0:15:53:85:ac:75:c5:7a:d8:99:f4:9a:
        fa:ae:df:01:08:af:95:8d:53:71:7d:78:4f:8b:9f:d7:41:14:
        1f:0b:4d:78:08:cd:03:72:c3:9f:80:7f:40:a4:02:99:02:a3:
        12:e9:44:5d
-----BEGIN CERTIFICATE-----
MIIDnzCCAoegAwIBAgIQcT6t2+hByZHkkcHQt8OpMjANBgkqhkiG9w0BAQsFADAc
MRowGAYDVQQDDBFPbWVyIFRlc3QgTGFicyBDQTAeFw0yNTEwMjYwMDMyNDBaFw0y
NjEwMjYwMDMyNDBaMCcxJTAjBgNVBAMMHHNlY3VyZXdlYnNlcnZlci5teWJhbmsu
bG9jYWwwggEiMA0GCSqGSIb3DQEBAQUAA4IBDwAwggEKAoIBAQCl/JRTux82szC9
4kQdu3cWarwbMzlVk8eiYICwMvkkTRcjcDYooSmsbWGQ6UXPyhGHEllB8TJgO/6Y
hBpkRCrXddGAzse+v2zYFkqqWE5L0e2YDnGTRNugIm84M2dWPMhSVLyhSPfsyemL
WvomNgrIqAPpjQ1Z7jop6v1UabRlMca8zPbBxsuUGKUuhf3rIatVVif4QjpD1s/q
EklcXiWagnjfpLHNIbgbiqWY5x+5fiWhzNhltcyup/u/GiH5Kke4gDsbLUu1dSTQ
+XCe+u0FelP4DhwGbufjZZTz8AkHO2LqDkNyMwL/DWfBn7aURON5yKkmOgkG4Bmf
rK6ulk77AgMBAAGjgdEwgc4wCQYDVR0TBAIwADAdBgNVHQ4EFgQUa4dKyk/Ak9hY
WwV1TXjftSpxZnAwVwYDVR0jBFAwToAURSlQVIGsxPaS2fV/L+F10gRU9sehIKQe
MBwxGjAYBgNVBAMMEU9tZXIgVGVzdCBMYWJzIENBghQOZzQeEtgpam2WeYqgSfPx
GGJKDTATBgNVHSUEDDAKBggrBgEFBQcDATALBgNVHQ8EBAMCBaAwJwYDVR0RBCAw
HoIcc2VjdXJld2Vic2VydmVyLm15YmFuay5sb2NhbDANBgkqhkiG9w0BAQsFAAOC
AQEAb6wdl/RD4YrVH6R4FipT2ck3xL0XJnpU93gVIuKP1QHZJj+4u7LwTRk76rxa
5PzXlq9ci4w9/1zRdYRW/0tQWeFXEOgD/g6/94nyikmCBXq+u2HfaYUKUM7Dr4tf
IVHxNrqrdnyXLf71djejUumPDllc3/pMrFxvXJhErl0eq/u2s6hvzJa1+hFVYM6K
Mg4HVqHero/vteUFp8bLETPRagumxHc3D+OwNwy4C8X+TPPKAaCI5OxqxwRiopj+
kQ4IAeQL0HNHYLOxO/0c4BVThax1xXrYmfSa+q7fAQivlY1TcX14T4uf10EUHwtN
eAjNA3LDn4B/QKQCmQKjEulEXQ==
-----END CERTIFICATE-----
