Certificate:
    Data:
        Version: 3 (0x2)
        Serial Number:
            81:4e:66:2a:83:41:e9:4f:82:7c:17:84:ad:0a:79:f9
        Signature Algorithm: sha256WithRSAEncryption
        Issuer: CN=Omer Test Labs CA
        Validity
            Not Before: Oct 26 00:43:33 2025 GMT
            Not After : Oct 26 00:43:33 2026 GMT
        Subject: CN=securewebserver.mybank.local
        Subject Public Key Info:
            Public Key Algorithm: rsaEncryption
                Public-Key: (2048 bit)
                Modulus:
                    00:a7:83:ed:db:57:79:31:84:74:c5:03:b4:59:6a:
                    ff:6c:b3:37:d8:38:0b:f2:38:31:b1:3c:d0:35:29:
                    3d:fb:00:2d:2d:86:d2:ba:73:9b:f5:87:ba:83:80:
                    e6:33:b7:46:f8:ff:3f:13:1c:85:bf:4b:c2:0d:e6:
                    1e:34:6b:90:fd:30:17:15:51:73:0c:7a:dd:e8:7e:
                    3f:44:b2:3d:aa:76:52:37:7e:b2:6a:6b:80:ce:c8:
                    05:c4:6a:9c:61:bd:05:9d:a4:7f:12:31:28:c0:63:
                    3c:cb:ca:69:1a:0a:12:f6:d4:56:ea:66:9d:b6:7a:
                    2f:87:06:1d:df:11:cc:b3:91:78:cd:14:e2:14:9e:
                    90:2b:f7:aa:30:ce:1f:e7:70:2d:a7:11:1d:4c:89:
                    b1:11:44:df:a5:70:8f:2a:41:8e:26:da:fe:5a:3f:
                    5b:8a:d9:b8:dc:ac:56:72:c2:11:73:11:d1:12:a7:
                    b5:14:48:05:b2:ab:be:40:e7:ea:b6:ad:c9:0d:c1:
                    43:5a:0d:7a:42:fd:eb:30:79:20:6d:53:78:73:bb:
                    95:b2:f7:97:79:e0:17:25:ad:0e:24:2d:15:12:ad:
                    82:45:d4:8b:61:d2:28:7a:73:18:a7:43:2d:19:b2:
                    04:74:5e:d3:6d:8e:bc:a3:63:15:d1:21:e7:83:1e:
                    6e:bf
                Exponent: 65537 (0x10001)
        X509v3 extensions:
            X509v3 Basic Constraints: 
                CA:FALSE
            X509v3 Subject Key Identifier: 
                C8:22:7F:B7:B0:59:F1:30:A1:9B:8E:76:B6:45:53:D5:07:CB:9B:14
            X509v3 Authority Key Identifier: 
                keyid:45:29:50:54:81:AC:C4:F6:92:D9:F5:7F:2F:E1:75:D2:04:54:F6:C7
                DirName:/CN=Omer Test Labs CA
                serial:0E:67:34:1E:12:D8:29:6A:6D:96:79:8A:A0:49:F3:F1:18:62:4A:0D
            X509v3 Extended Key Usage: 
                TLS Web Server Authentication
            X509v3 Key Usage: 
                Digital Signature, Key Encipherment
            X509v3 Subject Alternative Name: 
                DNS:securewebserver.mybank.local
    Signature Algorithm: sha256WithRSAEncryption
    Signature Value:
        d2:6e:59:13:9e:7a:75:4a:61:19:4c:06:d6:73:6d:43:33:c4:
        a7:66:4b:6d:7f:40:3a:c4:57:dd:23:2d:b5:7d:c6:cd:5b:12:
        d4:44:15:0e:fb:68:13:4d:ec:b6:2c:e6:a8:25:fa:28:07:68:
        a6:82:5c:ab:a9:ae:6e:02:2f:29:8f:36:7d:99:56:47:71:16:
        b4:17:19:71:3e:54:62:43:c2:c7:3e:0c:29:96:bf:b6:8c:d7:
        87:e4:a3:ee:b2:b9:72:da:b4:21:22:9c:d0:d4:eb:35:d8:f3:
        15:b0:4d:43:2e:ef:4a:07:12:ac:02:c6:a0:59:fd:e8:59:be:
        33:b0:ce:0b:0f:10:c8:a8:3a:ad:72:a8:8b:f9:f5:cf:04:ab:
        ae:c4:28:b6:3e:44:3c:14:b2:07:15:8d:d4:61:d8:d4:b8:a0:
        5c:48:d4:4d:26:8b:6c:d5:ad:58:fc:bf:3c:64:c3:fe:a2:b4:
        f2:78:a5:93:01:97:d8:12:83:0c:78:8b:96:71:0b:82:9a:48:
        93:d0:21:d2:fc:79:37:4d:bc:2e:bf:24:5d:1e:53:65:a7:12:
        05:9e:72:05:54:ed:8f:57:63:16:a5:b6:7a:9f:e1:45:34:32:
        bc:16:0d:a5:ac:43:81:64:fe:2b:be:bc:d1:ef:1b:7b:01:b7:
        2d:33:7d:e1
-----BEGIN CERTIFICATE-----
MIIDoDCCAoigAwIBAgIRAIFOZiqDQelPgnwXhK0KefkwDQYJKoZIhvcNAQELBQAw
HDEaMBgGA1UEAwwRT21lciBUZXN0IExhYnMgQ0EwHhcNMjUxMDI2MDA0MzMzWhcN
MjYxMDI2MDA0MzMzWjAnMSUwIwYDVQQDDBxzZWN1cmV3ZWJzZXJ2ZXIubXliYW5r
LmxvY2FsMIIBIjANBgkqhkiG9w0BAQEFAAOCAQ8AMIIBCgKCAQEAp4Pt21d5MYR0
xQO0WWr/bLM32DgL8jgxsTzQNSk9+wAtLYbSunOb9Ye6g4DmM7dG+P8/ExyFv0vC
DeYeNGuQ/TAXFVFzDHrd6H4/RLI9qnZSN36yamuAzsgFxGqcYb0FnaR/EjEowGM8
y8ppGgoS9tRW6madtnovhwYd3xHMs5F4zRTiFJ6QK/eqMM4f53AtpxEdTImxEUTf
pXCPKkGOJtr+Wj9bitm43KxWcsIRcxHREqe1FEgFsqu+QOfqtq3JDcFDWg16Qv3r
MHkgbVN4c7uVsveXeeAXJa0OJC0VEq2CRdSLYdIoenMYp0MtGbIEdF7TbY68o2MV
0SHngx5uvwIDAQABo4HRMIHOMAkGA1UdEwQCMAAwHQYDVR0OBBYEFMgif7ewWfEw
oZuOdrZFU9UHy5sUMFcGA1UdIwRQME6AFEUpUFSBrMT2ktn1fy/hddIEVPbHoSCk
HjAcMRowGAYDVQQDDBFPbWVyIFRlc3QgTGFicyBDQYIUDmc0HhLYKWptlnmKoEnz
8RhiSg0wEwYDVR0lBAwwCgYIKwYBBQUHAwEwCwYDVR0PBAQDAgWgMCcGA1UdEQQg
MB6CHHNlY3VyZXdlYnNlcnZlci5teWJhbmsubG9jYWwwDQYJKoZIhvcNAQELBQAD
ggEBANJuWROeenVKYRlMBtZzbUMzxKdmS21/QDrEV90jLbV9xs1bEtREFQ77aBNN
7LYs5qgl+igHaKaCXKuprm4CLymPNn2ZVkdxFrQXGXE+VGJDwsc+DCmWv7aM14fk
o+6yuXLatCEinNDU6zXY8xWwTUMu70oHEqwCxqBZ/ehZvjOwzgsPEMioOq1yqIv5
9c8Eq67EKLY+RDwUsgcVjdRh2NS4oFxI1E0mi2zVrVj8vzxkw/6itPJ4pZMBl9gS
gwx4i5ZxC4KaSJPQIdL8eTdNvC6/JF0eU2WnEgWecgVU7Y9XYxaltnqf4UU0MrwW
DaWsQ4Fk/iu+vNHvG3sBty0zfeE=
-----END CERTIFICATE-----
